; Function Attrs: nounwind uwtable
define ptr @l_Lean_Compiler_LCNF_UnreachableBranches_findArgValue(ptr noundef %0, ptr noundef readonly captures(none) %1, ptr noundef %2, ptr noundef readnone captures(none) %3, ptr noundef readnone captures(none) %4, ptr noundef readnone captures(none) %5, ptr noundef readnone captures(none) %6, ptr noundef %7) local_unnamed_addr #1 {
  %9 = ptrtoint ptr %0 to i64
  %10 = and i64 %9, 1
  %.not.i = icmp eq i64 %10, 0
  br i1 %.not.i, label %14, label %11

11:                                               ; preds = %8
  %12 = lshr i64 %9, 1
  %13 = trunc i64 %12 to i32
  br label %lean_obj_tag.exit

14:                                               ; preds = %8
  %15 = getelementptr i8, ptr %0, i64 4
  %.val.i = load i32, ptr %15, align 4
  %16 = lshr i32 %.val.i, 24
  br label %lean_obj_tag.exit

lean_obj_tag.exit:                                ; preds = %11, %14
  %.0.i = phi i32 [ %13, %11 ], [ %16, %14 ]
  %17 = icmp eq i32 %.0.i, 1
  br i1 %17, label %18, label %22

18:                                               ; preds = %lean_obj_tag.exit
  %19 = getelementptr inbounds nuw i8, ptr %0, i64 8
  %20 = load ptr, ptr %19, align 8, !tbaa !11
  %21 = tail call ptr @l_Lean_Compiler_LCNF_UnreachableBranches_findVarValue(ptr noundef %20, ptr noundef %1, ptr noundef %2, ptr poison, ptr poison, ptr poison, ptr poison, ptr noundef %7)
  br label %29

22:                                               ; preds = %lean_obj_tag.exit
  tail call void @lean_inc_heartbeat() #8
  %23 = tail call noalias ptr @mi_malloc_small(i64 noundef 24) #8
  %24 = icmp eq ptr %23, null
  br i1 %24, label %25, label %lean_alloc_ctor.exit

25:                                               ; preds = %22
  tail call void @lean_internal_panic_out_of_memory() #7
  unreachable

lean_alloc_ctor.exit:                             ; preds = %22
  %26 = getelementptr inbounds nuw i8, ptr %23, i64 4
  store i32 1, ptr %23, align 4, !tbaa !4
  store i32 131096, ptr %26, align 4
  %27 = getelementptr inbounds nuw i8, ptr %23, i64 8
  store ptr inttoptr (i64 3 to ptr), ptr %27, align 8, !tbaa !11
  %28 = getelementptr inbounds nuw i8, ptr %23, i64 16
  store ptr %7, ptr %28, align 8, !tbaa !11
  br label %29

29:                                               ; preds = %lean_alloc_ctor.exit, %18
  %.0 = phi ptr [ %21, %18 ], [ %23, %lean_alloc_ctor.exit ]
  ret ptr %.0
}